(dp1
S'output'
p2
S"<type 'exceptions.ImportError'> Cannot import module 'estructura_archivos_admin'"
p3
sS'layer'
p4
S'C:\\Users\\ArcGis\\Documents\\cliente_sarmod_windows_v4\\cliente_sarmod_windows_v5\\cliente_snmb\\applications\\init\\controllers/01_conglomerado.py'
p5
sS'code'
p6
S'# coding: utf8\n\nimport estructura_archivos_admin as eaa\n\ndef index():\n\n\t## Controlador correspondiente a la pesta\xc3\xb1a "Conglomerado", de la secci\xc3\xb3n\n\t## hom\xc3\xb3nima.\n\n\tcampos = [\n\n\t\t###########################################\n\t\t# Conglomerado\n\t\t###########################################\n\n\t\t# El campo "monitoreo_tipo" de la tabla "Conglomerado_muestra", se llena\n\t\t# a la hora de procesar los datos,\n\n\t\tINPUT(_name=\'nombre\',_type=\'integer\',requires=IS_NOT_EMPTY()),\n\t\tINPUT(_name=\'fecha_visita\',_type=\'date\',requires=IS_NOT_EMPTY()),\n\t\tSELECT(_name=\'tipo\',\n\t\t\trequires=IS_IN_DB(db,db.Cat_tipo_conglomerado.nombre,\'%(nombre)s\')),\n\t\tSELECT(_name=\'estado\',\n\t\t\trequires=IS_IN_DB(db,db.Cat_estado_conglomerado.nombre,\'%(nombre)s\')),\n\t\tSELECT(_name=\'municipio\',\n\t\t\trequires=IS_IN_DB(db,db.Cat_municipio_conglomerado.nombre,\'%(nombre)s\')),\n\t\tINPUT(_name=\'predio\',_type=\'string\',requires=IS_NOT_EMPTY()),\n\t\tSELECT(_name=\'tenencia\',\n\t\t\trequires=IS_IN_DB(db,db.Cat_tenencia_conglomerado.nombre,\'%(nombre)s\')),\n\t\tSELECT(_name=\'uso_suelo_tipo\',\n\t\t\trequires=IS_IN_DB(db,db.Cat_suelo_conglomerado.nombre,\'%(nombre)s\')),\n\n\t\tINPUT(_name=\'compania\',_type=\'string\',requires=IS_NOT_EMPTY()),\n\n\t\t# El campo de vegetaci\xc3\xb3n_tipo posiblemente se env\xc3\xade vac\xc3\xado de la vista (si\n\t\t# vegetaci\xc3\xb3n no es el uso de suelo principal), por ello, conviene ponerlo\n\t\t# como un string, para que no lo rebote la forma en este caso.\n\n\t\tINPUT(_name=\'vegetacion_tipo\',_type=\'string\'),\n\n\t\tINPUT(_name=\'perturbado\',_type=\'boolean\'),\n\t\tINPUT(_name=\'comentario\',_type=\'text\'),\n\n\t\t###########################################\n\t\t# Formato de campo\n\t\t###########################################\n\n\t\tINPUT(_name=\'formato_campo\',_type=\'file\',requires=IS_NOT_EMPTY()),\n\n\t\t# En la informaci\xc3\xb3n acerca de sitios, los campos de "sitio_numero" y\n\t\t# "conglomerado_muestra_id", que se encuentran en la tabla "Sitio_muestra",\n\t\t# se llenar\xc3\xa1n a la hora de procesar los datos enviados de la vista.\n\n\t\t###########################################\n\t\t# Sitio 1 (centro)\n\t\t###########################################\n\n\t\tINPUT(_name=\'existe_1\',_type=\'boolean\'),\n\n\t\t# Como el centro puede no existir, no se pueden pedir como obligatorios\n\t\t# los siguientes campos (sin embargo, el validador de la vista se encar-\n\t\t# gar\xc3\xa1 de que los llenen en caso de que s\xc3\xad exista el sitio).\n\t\tINPUT(_name=\'lat_grado_1\',_type=\'integer\'),\n\t\tINPUT(_name=\'lat_min_1\',_type=\'integer\'),\n\t\tINPUT(_name=\'lat_seg_1\',_type=\'double\'),\n\t\tINPUT(_name=\'lon_grado_1\',_type=\'integer\'),\n\t\tINPUT(_name=\'lon_min_1\',_type=\'integer\'),\n\t\tINPUT(_name=\'lon_seg_1\',_type=\'double\'),\n\t\tINPUT(_name=\'altitud_1\',_type=\'double\'),\n\t\tINPUT(_name=\'gps_error_1\',_type=\'double\'),\n\n\t\t# El campo de elipsoide posiblemente se env\xc3\xade vac\xc3\xado de la vista, por ello,\n\t\t# conviene ponerlo como un string, para que no requiera que est\xc3\xa9 en\n\t\t# el cat\xc3\xa1logo (y por ende, no vac\xc3\xado).\n\t\tINPUT(_name=\'elipsoide_1\',_type=\'string\'),\n\t\tINPUT(_name=\'hay_evidencia_1\',_type=\'boolean\'),\n\t\t\n\t\t###########################################\n\t\t# Imagen sitio 1\n\t\t###########################################\n\n\t\tINPUT(_name=\'imagen_1\',_type=\'file\'),\n\t\t\t\n\t\t###########################################\n\t\t# Sitio 2\n\t\t###########################################\n\t\t\t\n\t\tINPUT(_name=\'existe_2\',_type=\'boolean\'),\n\n\t\t# Como el sitio 2 puede no existir, no se pueden pedir como obligatorios\n\t\t# los siguientes campos (sin embargo, el validador de la vista se encar-\n\t\t# gar\xc3\xa1 de que los llenen en caso de que s\xc3\xad exista el sitio).\n\t\tINPUT(_name=\'lat_grado_2\',_type=\'integer\'),\n\t\tINPUT(_name=\'lat_min_2\',_type=\'integer\'),\n\t\tINPUT(_name=\'lat_seg_2\',_type=\'double\'),\n\t\tINPUT(_name=\'lon_grado_2\',_type=\'integer\'),\n\t\tINPUT(_name=\'lon_min_2\',_type=\'integer\'),\n\t\tINPUT(_name=\'lon_seg_2\',_type=\'double\'),\n\t\tINPUT(_name=\'altitud_2\',_type=\'double\'),\n\t\tINPUT(_name=\'gps_error_2\',_type=\'double\'),\n\n\t\t# El campo de elipsoide posiblemente se env\xc3\xade vac\xc3\xado de la vista, por ello,\n\t\t# conviene ponerlo como un string, para que no requiera que est\xc3\xa9 en\n\t\t# el cat\xc3\xa1logo (y por ende, no vac\xc3\xado).\n\t\tINPUT(_name=\'elipsoide_2\',_type=\'string\'),          \n\t\tINPUT(_name=\'hay_evidencia_2\',_type=\'boolean\'),\n\t\t\n\t\t###########################################\n\t\t# Imagen sitio 2\n\t\t###########################################\n\n\t\tINPUT(_name=\'imagen_2\',_type=\'file\'),\n \n\t\t###########################################\n\t\t# Sitio 3\n\t\t###########################################\n\t\n\t\tINPUT(_name=\'existe_3\',_type=\'boolean\'),\n\n\t\t# Como el campo 3 puede no existir, no se pueden pedir como obligatorios\n\t\t# los siguientes campos (sin embargo, el validador de la vista se encar-\n\t\t# gar\xc3\xa1 de que los llenen)\n\t\tINPUT(_name=\'lat_grado_3\',_type=\'integer\'),\n\t\tINPUT(_name=\'lat_min_3\',_type=\'integer\'),\n\t\tINPUT(_name=\'lat_seg_3\',_type=\'double\'),\n\t\tINPUT(_name=\'lon_grado_3\',_type=\'integer\'),\n\t\tINPUT(_name=\'lon_min_3\',_type=\'integer\'),\n\t\tINPUT(_name=\'lon_seg_3\',_type=\'double\'),\n\t\tINPUT(_name=\'altitud_3\',_type=\'double\'),\n\t\tINPUT(_name=\'gps_error_3\',_type=\'double\'),\n\n\t\t# El campo de elipsoide posiblemente se env\xc3\xade vac\xc3\xado de la vista, por ello,\n\t\t# conviene ponerlo como un string, para que no requiera que est\xc3\xa9 en\n\t\t# el cat\xc3\xa1logo (y por ende, no vac\xc3\xado).\n\t\tINPUT(_name=\'elipsoide_3\',_type=\'string\'),\n\t\tINPUT(_name=\'hay_evidencia_3\',_type=\'boolean\'),\n\t\t\n\t\t###########################################\n\t\t# Imagen sitio 3\n\t\t###########################################\n\n\t\tINPUT(_name=\'imagen_3\',_type=\'file\'),\n\n\t\t###########################################\n\t\t# Sitio 4\n\t\t###########################################\n\t\n\t\tINPUT(_name=\'existe_4\',_type=\'boolean\'),\n\n\t\t# Como el campo 4 puede no existir, no se pueden pedir como obligatorios\n\t\t# los siguientes campos (sin embargo, el validador de la vista se encar-\n\t\t# gar\xc3\xa1 de que los llenen)\n\t\tINPUT(_name=\'lat_grado_4\',_type=\'integer\'),\n\t\tINPUT(_name=\'lat_min_4\',_type=\'integer\'),\n\t\tINPUT(_name=\'lat_seg_4\',_type=\'double\'),\n\t\tINPUT(_name=\'lon_grado_4\',_type=\'integer\'),\n\t\tINPUT(_name=\'lon_min_4\',_type=\'integer\'),\n\t\tINPUT(_name=\'lon_seg_4\',_type=\'double\'),\n\t\tINPUT(_name=\'altitud_4\',_type=\'double\'),\n\t\tINPUT(_name=\'gps_error_4\',_type=\'double\'),\n\n\t\t# El campo de elipsoide posiblemente se env\xc3\xade vac\xc3\xado de la vista, por ello,\n\t\t# conviene ponerlo como un string, para que no requiera que est\xc3\xa9 en\n\t\t# el cat\xc3\xa1logo (y por ende, no vac\xc3\xado).\n\t\tINPUT(_name=\'elipsoide_4\',_type=\'string\'),\n\t\tINPUT(_name=\'hay_evidencia_4\',_type=\'boolean\'),\n\t\t\n\t\t###########################################\n\t\t# Imagen sitio 4\n\t\t###########################################\n\n\t\tINPUT(_name=\'imagen_4\',_type=\'file\'),\n\n\t\t###########################################\n\t\t# Punto de control\n\t\t###########################################\n\n\t\t# El punto de control siempre existe.\n\t\t\n\t\tINPUT(_name=\'lat_grado_c\',_type=\'integer\',requires=IS_NOT_EMPTY()),\n\t\tINPUT(_name=\'lat_min_c\',_type=\'integer\',requires=IS_NOT_EMPTY()),\n\t\tINPUT(_name=\'lat_seg_c\',_type=\'double\',requires=IS_NOT_EMPTY()),\n\t\tINPUT(_name=\'lon_grado_c\',_type=\'integer\',requires=IS_NOT_EMPTY()),\n\t\tINPUT(_name=\'lon_min_c\',_type=\'integer\',requires=IS_NOT_EMPTY()),\n\t\tINPUT(_name=\'lon_seg_c\',_type=\'double\',requires=IS_NOT_EMPTY()),\n\t\tINPUT(_name=\'altitud_c\',_type=\'double\',requires=IS_NOT_EMPTY()),\n\t\tINPUT(_name=\'gps_error_c\',_type=\'double\',requires=IS_NOT_EMPTY()),\n\t\tSELECT(_name=\'elipsoide_c\',\n\t\trequires=IS_IN_DB(db,db.Cat_elipsoide.nombre,\'%(nombre)s\')),          \n\t\tINPUT(_name=\'hay_evidencia_c\',_type=\'boolean\'),\n\t\t\n\t\t###########################################\n\t\t# Imagen punto de control\n\t\t###########################################\n\n\t\t# Notar que en Punto de Control se suben dos fotos\n\t\tINPUT(_name=\'imagen_c\',_type=\'file\',requires=IS_NOT_EMPTY(),_multiple=True)\n\t\t\t\n\t]\n\n\t# \xc3\x89sta forma \xc3\xbanicamente se utilizar\xc3\xa1 para validar antes de ingresar a la base\n\t# de datos y as\xc3\xad, evitar excepciones a nivel base de datos.\n\n\tforma = FORM(*campos)\n\n\tif forma.accepts(request.vars,formname=\'formaHTML\'):\n\n\t\t###########################################\n\t\t# Procesando los datos del conglomerado\n\t\t###########################################\n\t\t\n\t\tdatosConglomerado = db.Conglomerado_muestra._filter_fields(forma.vars)\n\t\t\n\t\t# Campo oculto SAC-MOD (Conafor), SAR-MOD (Conanp)\n\t\tdatosConglomerado[\'monitoreo_tipo\'] = \'SAC-MOD\'\n\n\t\t# Si no escogieron "uso_suelo_tipo" como "Vegetaci\xc3\xb3n", entonces anulamos\n\t\t# (por consistencia en base de datos), los valores que se pudieran haber\n\t\t# ingresado en los datos dependientes de esta opci\xc3\xb3n:\n\n\t\t# Casteando para asegurarnos que la comparaci\xc3\xb3n sea entre enteros.\n\n\t\tif str(datosConglomerado[\'uso_suelo_tipo\']) != \'Vegetaci\xc3\xb3n\':\n\n\t\t\tdatosConglomerado[\'vegetacion_tipo\'] = None\n\t\t\tdatosConglomerado[\'perturbado\'] = None\n\n\t\t# Si escogieron "uso_suelo_tipo" como "Vegetacion", entonces dejamos los\n\t\t# valores que introdujeron (la vista se encarga de validar que los campos\n\t\t# sean llenados). A excepci\xc3\xb3n de:\n\n\t\t# Si escogieron "uso_suelo_tipo" como "Vegetaci\xc3\xb3n" y no marcaron la casilla\n\t\t# de perturbado, entonces hay que asignarle "False" a esta, para diferen-\n\t\t# ciarla de cuando no es requerida.\n\n\t\telif not(bool(datosConglomerado[\'perturbado\'])):\n\t\t\n\t\t\tdatosConglomerado[\'perturbado\'] = False\n\t\t\t\n\t\t# Insertando en la base de datos:\n\t\tconglomeradoInsertado = db.Conglomerado_muestra.insert(**datosConglomerado)\n\n\t\t###########################################\n\t\t# Procesando los datos del formato de campo\n\t\t###########################################\n\n\t\t# Guardando el formato en la carpeta adecuada\n\t\tformato_campo = db.Formato_campo.archivo.store(\n\t\t\tforma.vars.formato_campo.file, forma.vars.formato_campo.filename)\n\t\t\n\t\t# Creando los campos de la tabla Formato_campo:\n\n\t\tdatosFormato = {}\n\t\tdatosFormato[\'conglomerado_muestra_id\'] = conglomeradoInsertado\n\t\tdatosFormato[\'archivo\'] = formato_campo\n\t\tdatosFormato[\'archivo_nombre_original\'] = forma.vars.formato_campo.filename\n\n\t\tdb.Formato_campo.insert(**datosFormato)\n\n\t\t# En los campos correspondientes a los sitios declarados, si no\n\t\t# seleccionaron "inaccesible", entonces todo se guarda normalmente, de lo\n\t\t# contrario, s\xc3\xb3lo se llena el punto de control (los otros sitios se\n\t\t# registran como inexistentes en la base de datos)\n\n\t\tif (datosConglomerado[\'tipo\'] == \'3 Inaccesible terreno/clima\' or\\\n\t\t\tdatosConglomerado[\'tipo\'] == \'4 Inaccesible social\' or\\\n\t\t\tdatosConglomerado[\'tipo\'] == \'5 Inaccesible gabinete\'):\n\n\t\t\tdatosSitio = {}\n\t\t\tdatosSitio[\'conglomerado_muestra_id\'] = conglomeradoInsertado\n\t\t\tdatosSitio[\'existe\'] = False\n\n\t\t\tfor sitio_numero in [\'Centro\', \'Sitio 2\',  \'Sitio 3\', \'Sitio 4\']:\n\t\t\t\tdatosSitio[\'sitio_numero\'] = sitio_numero\n\t\t\t\tdb.Sitio_muestra.insert(**datosSitio)    \n\n\t\telse:  \n\n\t\t\t###########################################\n\t\t\t# Procesando los datos del sitio 1 (centro)\n\t\t\t###########################################\n\n\t\t\tdatosSitio1 = {}\n\n\t\t\t# Agregando los datos que no se pidieron al usuario:  \n\t\t\tdatosSitio1[\'conglomerado_muestra_id\'] = conglomeradoInsertado\n\t\t\tdatosSitio1[\'sitio_numero\'] = \'Centro\'\n\n\t\t\t# Si existe el sitio 1:\n\t\t\tif bool(forma.vars[\'existe_1\']):\n\n\t\t\t\t# Agregando los datos extra\xc3\xaddos de la forma:\n\t\t\t\tdatosSitio1[\'existe\'] = forma.vars[\'existe_1\']\n\t\t\t\tdatosSitio1[\'lat_grado\'] = forma.vars[\'lat_grado_1\']\n\t\t\t\tdatosSitio1[\'lat_min\'] = forma.vars[\'lat_min_1\']\n\t\t\t\tdatosSitio1[\'lat_seg\'] = forma.vars[\'lat_seg_1\']\n\t\t\t\tdatosSitio1[\'lon_grado\'] = forma.vars[\'lon_grado_1\']\n\t\t\t\tdatosSitio1[\'lon_min\'] = forma.vars[\'lon_min_1\']\n\t\t\t\tdatosSitio1[\'lon_seg\'] = forma.vars[\'lon_seg_1\']\n\t\t\t\tdatosSitio1[\'altitud\'] = forma.vars[\'altitud_1\']\n\t\t\t\tdatosSitio1[\'gps_error\'] = forma.vars[\'gps_error_1\']\n\t\t\t\tdatosSitio1[\'elipsoide\'] = forma.vars[\'elipsoide_1\']\n\n\t\t\t\t# Si hay evidencia, entonces True se guarda en la base de datos, en\n\t\t\t\t# caso contrario, se tiene que guardar manualmente False, pues si no,\n\t\t\t\t# Web2py guarda Null.\n\n\t\t\t\tif bool(forma.vars[\'hay_evidencia_1\']):\n\t\t\t\t\tdatosSitio1[\'hay_evidencia\'] = forma.vars[\'hay_evidencia_1\']\n\t\t\t\telse:\n\t\t\t\t\tdatosSitio1[\'hay_evidencia\'] = False\n\t\t\t\t\t\n\t\t\telse:\n\t\t\t\tdatosSitio1[\'existe\'] = False\n\t\t\t\n\t\t\t# Insertando en la base de datos:\n\t\t\tsitio1Insertado = db.Sitio_muestra.insert(**datosSitio1)      \n\t\t\t\n\t\t\t###########################################\n\t\t\t# Procesando los datos de la imagen del sitio 1\n\t\t\t###########################################\n\n\t\t\tif bool(forma.vars[\'existe_1\']):\n\n\t\t\t\t# Guardando la imagen de referencia en la carpeta adecuada\n\t\t\t\timagen1 = db.Imagen_referencia_sitio.archivo.store(\n\t\t\t\t\tforma.vars.imagen_1.file, forma.vars.imagen_1.filename)\n\t\t\t\n\t\t\t\t# Creando los campos de la tabla Imagen_referencia_sitio:\n\n\t\t\t\tdatosImagen1 = {}\n\t\t\t\tdatosImagen1[\'sitio_muestra_id\'] = sitio1Insertado\n\t\t\t\tdatosImagen1[\'archivo\'] = imagen1\n\t\t\t\tdatosImagen1[\'archivo_nombre_original\'] = forma.vars.imagen_1.filename\n\t\t\t\n\t\t\t\t#Insertando el registro en la base de datos:\n\t\t\t\n\t\t\t\tdb.Imagen_referencia_sitio.insert(**datosImagen1)\n\t\t\t\t\n\t\t\t###########################################\n\t\t\t# Procesando los datos del sitio 2\n\t\t\t###########################################\n\n\t\t\tdatosSitio2 = {}\n\n\t\t\t#Agregando los datos que no se pidieron al usuario:\n\t\t\tdatosSitio2[\'conglomerado_muestra_id\'] = conglomeradoInsertado\n\t\t\tdatosSitio2[\'sitio_numero\'] = \'Sitio 2\'\n\t\t\t\n\t\t\t#Si existe el sitio 2:\n\t\t\tif bool(forma.vars[\'existe_2\']):\n\n\t\t\t\t#Agregando los datos extra\xc3\xaddos de la forma:\n\t\t\t\tdatosSitio2[\'existe\'] = forma.vars[\'existe_2\']\n\t\t\t\tdatosSitio2[\'lat_grado\'] = forma.vars[\'lat_grado_2\']\n\t\t\t\tdatosSitio2[\'lat_min\'] = forma.vars[\'lat_min_2\']\n\t\t\t\tdatosSitio2[\'lat_seg\'] = forma.vars[\'lat_seg_2\']\n\t\t\t\tdatosSitio2[\'lon_grado\'] = forma.vars[\'lon_grado_2\']\n\t\t\t\tdatosSitio2[\'lon_min\'] = forma.vars[\'lon_min_2\']\n\t\t\t\tdatosSitio2[\'lon_seg\'] = forma.vars[\'lon_seg_2\']\n\t\t\t\tdatosSitio2[\'altitud\'] = forma.vars[\'altitud_2\']\n\t\t\t\tdatosSitio2[\'gps_error\'] = forma.vars[\'gps_error_2\']\n\t\t\t\tdatosSitio2[\'elipsoide\'] = forma.vars[\'elipsoide_2\']\n\t\t\t\t\n\t\t\t\tif bool(forma.vars[\'hay_evidencia_2\']):\n\t\t\t\t\tdatosSitio2[\'hay_evidencia\'] = forma.vars[\'hay_evidencia_2\']\n\t\t\t\telse:\n\t\t\t\t\tdatosSitio2[\'hay_evidencia\'] = False\n\t\t\t\t\t\n\t\t\telse:\n\t\t\t\tdatosSitio2[\'existe\'] = False\n\t\t\t\n\t\t\t#Insertando en la base de datos:\n\t\t\tsitio2Insertado = db.Sitio_muestra.insert(**datosSitio2)      \n\n\t\t\t###########################################\n\t\t\t# Procesando los datos de la imagen del sitio 2\n\t\t\t###########################################\n\t\t\t\n\t\t\tif bool(forma.vars[\'existe_2\']):\n\t\t\t\t\t\t\t\n\t\t\t\t# Guardando la imagen de referencia en la carpeta adecuada\n\t\t\t\timagen2 = db.Imagen_referencia_sitio.archivo.store(\n\t\t\t\t\tforma.vars.imagen_2.file, forma.vars.imagen_2.filename)\n\t\t\t\n\t\t\t\t# Creando los campos de la tabla Imagen_referencia_sitio:\n\n\t\t\t\tdatosImagen2 = {}\n\t\t\t\tdatosImagen2[\'sitio_muestra_id\'] = sitio2Insertado\n\t\t\t\tdatosImagen2[\'archivo\'] = imagen2\n\t\t\t\tdatosImagen2[\'archivo_nombre_original\'] = forma.vars.imagen_2.filename\n\t\t\t\n\t\t\t\t# Insertando el registro en la base de datos:\n\t\t\t\n\t\t\t\tdb.Imagen_referencia_sitio.insert(**datosImagen2)\n\n\t\t\t###########################################\n\t\t\t# Procesando los datos del sitio 3\n\t\t\t###########################################\n\t\t\t\n\t\t\tdatosSitio3 = {}\n\n\t\t\t# Agregando los datos que no se pidieron al usuario:\n\t\t\tdatosSitio3[\'conglomerado_muestra_id\'] = conglomeradoInsertado\n\t\t\tdatosSitio3[\'sitio_numero\'] = \'Sitio 3\'\n\t\t\t\n\t\t\t# Si existe el sitio 3:\n\t\t\tif bool(forma.vars[\'existe_3\']):\n\n\t\t\t\t#Agregando los datos extra\xc3\xaddos de la forma:\n\t\t\t\tdatosSitio3[\'existe\'] = forma.vars[\'existe_3\']\n\t\t\t\tdatosSitio3[\'lat_grado\'] = forma.vars[\'lat_grado_3\']\n\t\t\t\tdatosSitio3[\'lat_min\'] = forma.vars[\'lat_min_3\']\n\t\t\t\tdatosSitio3[\'lat_seg\'] = forma.vars[\'lat_seg_3\']\n\t\t\t\tdatosSitio3[\'lon_grado\'] = forma.vars[\'lon_grado_3\']\n\t\t\t\tdatosSitio3[\'lon_min\'] = forma.vars[\'lon_min_3\']\n\t\t\t\tdatosSitio3[\'lon_seg\'] = forma.vars[\'lon_seg_3\']\n\t\t\t\tdatosSitio3[\'altitud\'] = forma.vars[\'altitud_3\']\n\t\t\t\tdatosSitio3[\'gps_error\'] = forma.vars[\'gps_error_3\']\n\t\t\t\tdatosSitio3[\'elipsoide\'] = forma.vars[\'elipsoide_3\']\n\t\t\t\t\n\t\t\t\tif bool(forma.vars[\'hay_evidencia_3\']):\n\t\t\t\t\tdatosSitio3[\'hay_evidencia\'] = forma.vars[\'hay_evidencia_3\']\n\t\t\t\telse:\n\t\t\t\t\tdatosSitio3[\'hay_evidencia\'] = False\n\t\t\t\t\t\n\t\t\telse:\n\t\t\t\tdatosSitio3[\'existe\'] = False\n\t\t\t\n\t\t\t#Insertando en la base de datos:\n\t\t\tsitio3Insertado = db.Sitio_muestra.insert(**datosSitio3)\n\t\t\t\n\t\t\t###########################################\n\t\t\t# Procesando los datos de la imagen del sitio 3\n\t\t\t###########################################\n\t\t\t\n\t\t\tif bool(forma.vars[\'existe_3\']):\n\t\t\t\t\t\t\t\n\t\t\t\t# Guardando la imagen de referencia en la carpeta adecuada\n\t\t\t\timagen3 = db.Imagen_referencia_sitio.archivo.store(\n\t\t\t\t\tforma.vars.imagen_3.file, forma.vars.imagen_3.filename)\n\t\t\t\n\t\t\t\t# Creando los campos de la tabla Imagen_referencia_sitio:\n\t\t\t\n\t\t\t\tdatosImagen3 = {}\n\t\t\t\tdatosImagen3[\'sitio_muestra_id\'] = sitio3Insertado\n\t\t\t\tdatosImagen3[\'archivo\'] = imagen3\n\t\t\t\tdatosImagen3[\'archivo_nombre_original\'] = forma.vars.imagen_3.filename\n\t\t\t\n\t\t\t\t#Insertando el registro en la base de datos:\n\t\t\t\n\t\t\t\tdb.Imagen_referencia_sitio.insert(**datosImagen3)\n\n\t\t\t###########################################\n\t\t\t# Procesando los datos del sitio 4\n\t\t\t###########################################\n\t\t\t\n\t\t\tdatosSitio4 = {}\n\n\t\t\t# Agregando los datos que no se pidieron al usuario:\n\t\t\tdatosSitio4[\'conglomerado_muestra_id\'] = conglomeradoInsertado\n\t\t\tdatosSitio4[\'sitio_numero\'] = \'Sitio 4\'\n\t\t\t\n\t\t\t# Si existe el sitio 4:\n\t\t\tif bool(forma.vars[\'existe_4\']):\n\n\t\t\t\t#Agregando los datos extra\xc3\xaddos de la forma:\n\t\t\t\tdatosSitio4[\'existe\'] = forma.vars[\'existe_4\']\n\t\t\t\tdatosSitio4[\'lat_grado\'] = forma.vars[\'lat_grado_4\']\n\t\t\t\tdatosSitio4[\'lat_min\'] = forma.vars[\'lat_min_4\']\n\t\t\t\tdatosSitio4[\'lat_seg\'] = forma.vars[\'lat_seg_4\']\n\t\t\t\tdatosSitio4[\'lon_grado\'] = forma.vars[\'lon_grado_4\']\n\t\t\t\tdatosSitio4[\'lon_min\'] = forma.vars[\'lon_min_4\']\n\t\t\t\tdatosSitio4[\'lon_seg\'] = forma.vars[\'lon_seg_4\']\n\t\t\t\tdatosSitio4[\'altitud\'] = forma.vars[\'altitud_4\']\n\t\t\t\tdatosSitio4[\'gps_error\'] = forma.vars[\'gps_error_4\']\n\t\t\t\tdatosSitio4[\'elipsoide\'] = forma.vars[\'elipsoide_4\']\n\t\t\t\t\n\t\t\t\tif bool(forma.vars[\'hay_evidencia_4\']):\n\t\t\t\t\tdatosSitio4[\'hay_evidencia\'] = forma.vars[\'hay_evidencia_4\']\n\t\t\t\telse:\n\t\t\t\t\tdatosSitio4[\'hay_evidencia\'] = False\n\t\t\t\t\t\n\t\t\telse:\n\t\t\t\tdatosSitio4[\'existe\'] = False\n\t\t\t\n\t\t\t#Insertando en la base de datos:\n\t\t\tsitio4Insertado = db.Sitio_muestra.insert(**datosSitio4)\n\t\t\t\n\t\t\t###########################################\n\t\t\t# Procesando los datos de la imagen del sitio 4\n\t\t\t###########################################\n\t\t\t\n\t\t\tif bool(forma.vars[\'existe_4\']):\n\t\t\t\t\t\t\t\n\t\t\t\t#Guardando la imagen de referencia en la carpeta adecuada\n\t\t\t\timagen4 = db.Imagen_referencia_sitio.archivo.store(\n\t\t\t\t\tforma.vars.imagen_4.file, forma.vars.imagen_4.filename)\n\t\t\t\n\t\t\t\t#Creando los campos de la tabla Imagen_referencia_sitio:\n\t\t\t\n\t\t\t\tdatosImagen4 = {}\n\t\t\t\tdatosImagen4[\'sitio_muestra_id\'] = sitio4Insertado\n\t\t\t\tdatosImagen4[\'archivo\'] = imagen4\n\t\t\t\tdatosImagen4[\'archivo_nombre_original\'] = forma.vars.imagen_4.filename\n\t\t\t\n\t\t\t\t#Insertando el registro en la base de datos:\n\t\t\t\n\t\t\t\tdb.Imagen_referencia_sitio.insert(**datosImagen4)\n\n\t\t# El punto de control siempre existe\n\n\t\t###########################################\n\t\t# Procesando los datos del punto de control\n\t\t###########################################\n\t\t\n\t\tdatosSitioC = {}\n\n\t\t# Agregando los datos que no se pidieron al usuario:\n\n\t\tdatosSitioC[\'conglomerado_muestra_id\'] = conglomeradoInsertado\n\t\tdatosSitioC[\'sitio_numero\'] = \'Punto de control\'\n\t\tdatosSitioC[\'existe\'] = True\n\t\t\n\t\t# Leyendo los datos del formulario:\n\t\tdatosSitioC[\'lat_grado\'] = forma.vars[\'lat_grado_c\']\n\t\tdatosSitioC[\'lat_min\'] = forma.vars[\'lat_min_c\']\n\t\tdatosSitioC[\'lat_seg\'] = forma.vars[\'lat_seg_c\']\n\t\tdatosSitioC[\'lon_grado\'] = forma.vars[\'lon_grado_c\']\n\t\tdatosSitioC[\'lon_min\'] = forma.vars[\'lon_min_c\']\n\t\tdatosSitioC[\'lon_seg\'] = forma.vars[\'lon_seg_c\']\n\t\tdatosSitioC[\'altitud\'] = forma.vars[\'altitud_c\']\n\t\tdatosSitioC[\'gps_error\'] = forma.vars[\'gps_error_c\']\n\t\tdatosSitioC[\'elipsoide\'] = forma.vars[\'elipsoide_c\']\n\t\t\n\t\tif bool(forma.vars[\'hay_evidencia_c\']):\n\t\t\tdatosSitioC[\'hay_evidencia\'] = forma.vars[\'hay_evidencia_c\']\n\t\telse:\n\t\t\tdatosSitioC[\'hay_evidencia\'] = False\n\t\t\t\n\t\t#Insertando en la base de datos:\n\t\tsitioCInsertado = db.Sitio_muestra.insert(**datosSitioC)\n\t\t\n\t\t###########################################\n\t\t# Procesando los datos de la imagen del punto de control\n\t\t###########################################\n\n\t\t# Notar que, a diferencia de los sitios, en punto de control se suben 2 fotograf\xc3\xadas\n\n\t\tarchivos = forma.vars[\'imagen_c\']\n\n\t\tif not isinstance(archivos, list):\n\t\t\n\t\t\tarchivos = [archivos]\n\n\t\tfor aux in archivos:\n\n\t\t\t# Guardando el archivo en la carpeta adecuada\n\t\t\tarchivoImagen = db.Imagen_referencia_sitio.archivo.store(aux,aux.filename)\n\n\t\t\tdatosArchivoImagen = {}\n\t\t\tdatosArchivoImagen[\'sitio_muestra_id\'] = sitioCInsertado\n\t\t\tdatosArchivoImagen[\'archivo\'] = archivoImagen\n\t\t\tdatosArchivoImagen[\'archivo_nombre_original\'] = aux.filename\n\n\t\t\t# Insertando el registro en la base de datos:\n\t\t\t\n\t\t\tdb.Imagen_referencia_sitio.insert(**datosArchivoImagen)\n\n\t\t##################################################\n\t\t# Creaci\xc3\xb3n de carpetas para alojar fotos y sonidos \n\t\t##################################################\n\n\t\teaa.crearEstructuraCarpetas(\n\t\t\tstr(datosConglomerado[\'nombre\']),\n\t\t\tstr(datosConglomerado[\'fecha_visita\'])\n\t\t)\n\n\t\tresponse.flash = \'\xc3\x89xito\'\n\t\t\n\telif forma.errors:\n\n\t\tresponse.flash = \'Hubo un error al llenar la forma\'\n\t   \n\telse:\n\t\tpass\n\n\t##############################################################\n\t# Procesando la informaci\xc3\xb3n de las dropdowns\n\t##############################################################\n\n\t# Llenando las combobox de tipo de conglomerado, estado, tenencia, principal\n\t# uso de suelo, tipo de vegetaci\xc3\xb3n y elipsoide\n\n\tlistaTipo = db(db.Cat_tipo_conglomerado).select(db.Cat_tipo_conglomerado.nombre)\n\n\tlistaEstado = db(db.Cat_estado_conglomerado).select(db.Cat_estado_conglomerado.nombre)\n\n\tlistaTenencia = db(db.Cat_tenencia_conglomerado).select(db.Cat_tenencia_conglomerado.nombre)\n\n\tlistaUsoSuelo = db(db.Cat_suelo_conglomerado).select(db.Cat_suelo_conglomerado.nombre)\n\n\tlistaVegetacion = db(db.Cat_vegetacion_conglomerado).select(db.Cat_vegetacion_conglomerado.nombre)\n\n\tlistaElipsoide = db(db.Cat_elipsoide).select(db.Cat_elipsoide.nombre)\n\n\treturn dict(listaTipo = listaTipo,\\\n\t\tlistaEstado = listaEstado,\\\n\t\tlistaTenencia = listaTenencia,\\\n\t\tlistaUsoSuelo = listaUsoSuelo,\\\n\t\tlistaVegetacion = listaVegetacion,\\\n\t\tlistaElipsoide = listaElipsoide)\n\ndef asignarMunicipios():\n\n\t## Funci\xc3\xb3n invocada mediante AJAX para llenar la combobox de municipio\n\t## a partir del estado seleccionado.\n\n\t# Obteniendo la informaci\xc3\xb3n del estado que seleccion\xc3\xb3 el usuario:\n\testadoElegidoNombre = request.vars.estado\n\n\t# Obteniendo la clave de dicho estado:\n\testadoElegidoClave = db(db.Cat_estado_conglomerado.nombre == estadoElegidoNombre\n\t\t).select().first().clave_ent\n\n\t# Obteniendo los municipios que existen en dicho estado a partir de la clave\n\tmunicipiosAsignados = db(\n\t\tdb.Cat_municipio_conglomerado.clave_ent == estadoElegidoClave\n\t\t).select(db.Cat_municipio_conglomerado.nombre)\n\n\t# Creando la dropdown de municipios y envi\xc3\xa1ndola a la vista para que sea desplegada:\n\n\tdropdownHTML = "<select class=\'generic-widget\' name=\'municipio\' id=\'municipio\'>"\n\n\tdropdownHTML += "<option value=\'\'/>"\n\n\tfor municipio in municipiosAsignados:\n\n\t\tdropdownHTML += "<option value=\'" + str(municipio.nombre) + "\'>" + municipio.nombre + "</option>"  \n\t\n\tdropdownHTML += "</select>"\n\t\n\treturn XML(dropdownHTML)\n\ndef conglomeradoExistente():\n\n\t## Funci\xc3\xb3n convocada mediante AJAX para revisar que no se haya ingresado el\n\t## mismo conglomerado con anterioridad. El AJAX se activar\xc3\xa1 cuando escriban\n\t## un caracter del nombre de conglomerado.\n\n\t# Obteniendo la informaci\xc3\xb3n del conglomerado que ha ingresado el usuario.\n\t# Puede ser que no haya terminado de escribir, por ello, se revisa primero\n\t# la longitud del caracter:\n\n\tlongitudNombres = 6\n\n\t# El resultado en el tercer caso ser\xc3\xa1 el n\xc3\xbamero de registros en la base de\n\t# datos con el mismo nombre de conglomerado, que se regresar\xc3\xa1 a JS para\n\t# su interpretaci\xc3\xb3n:\n\n\tif (len(request.vars.nombre) < longitudNombres):\n\t\tresultado = 0\n\n\telif (len(request.vars.nombre) > longitudNombres):\n\t\tresultado = -1\n\n\telse:\n\n\t\tconglomeradoElegidoNombre = request.vars.nombre\n\n\t# Haciendo un query a la tabla de Conglomerado_muestra con la\n\t# informaci\xc3\xb3n anterior:\n\n\t\tconglomeradoYaInsertado = db(\n\t\t\tdb.Conglomerado_muestra.nombre == conglomeradoElegidoNombre).select()\n\n\t# Regresa la longitud de conglomeradoYaInsertado para que sea interpretada por JS\n\n\t\tresultado = len(conglomeradoYaInsertado)\n\n\treturn resultado\n\nresponse._vars=response._caller(index)\n'
p7
sS'snapshot'
p8
(dp9
S'exception'
p10
(dp11
S'__hash__'
p12
S"<method-wrapper '__hash__' of exceptions.ImportError object>"
p13
sS'__setattr__'
p14
S"<method-wrapper '__setattr__' of exceptions.ImportError object>"
p15
sS'__reduce_ex__'
p16
S'<built-in method __reduce_ex__ of exceptions.ImportError object>'
p17
sS'__getslice__'
p18
S"<method-wrapper '__getslice__' of exceptions.ImportError object>"
p19
sS'__getitem__'
p20
S"<method-wrapper '__getitem__' of exceptions.ImportError object>"
p21
sS'__setstate__'
p22
S'<built-in method __setstate__ of exceptions.ImportError object>'
p23
sS'__reduce__'
p24
S'<built-in method __reduce__ of exceptions.ImportError object>'
p25
sS'__str__'
p26
S"<method-wrapper '__str__' of exceptions.ImportError object>"
p27
sS'__format__'
p28
S'<built-in method __format__ of exceptions.ImportError object>'
p29
sS'__getattribute__'
p30
S"<method-wrapper '__getattribute__' of exceptions.ImportError object>"
p31
sS'__class__'
p32
S"<type 'exceptions.ImportError'>"
p33
sS'__unicode__'
p34
S'<built-in method __unicode__ of exceptions.ImportError object>'
p35
sS'__delattr__'
p36
S"<method-wrapper '__delattr__' of exceptions.ImportError object>"
p37
sS'__subclasshook__'
p38
S'<built-in method __subclasshook__ of type object>'
p39
sS'__repr__'
p40
S"<method-wrapper '__repr__' of exceptions.ImportError object>"
p41
sS'args'
p42
S'("Cannot import module \'estructura_archivos_admin\'",)'
p43
sS'__dict__'
p44
S'{}'
p45
sS'__sizeof__'
p46
S'<built-in method __sizeof__ of exceptions.ImportError object>'
p47
sS'__doc__'
p48
S'"Import can\'t find module, or can\'t find name in module."'
p49
sS'__init__'
p50
S"<method-wrapper '__init__' of exceptions.ImportError object>"
p51
sS'__new__'
p52
S'<built-in method __new__ of type object>'
p53
ssS'evalue'
p54
S"Cannot import module 'estructura_archivos_admin'"
p55
sS'request'
p56
cgluon.html
XML_unpickle
p57
(S'sWY\x00\x00<div><table><tr><td style="font-weight:bold;vertical-align:top;">ajax</td><td style="vertical-align:top;">:</td><td><div>False</div></td></tr><tr><td style="font-weight:bold;vertical-align:top;">application</td><td style="vertical-align:top;">:</td><td><div>init</div></td></tr><tr><td style="font-weight:bold;vertical-align:top;">args</td><td style="vertical-align:top;">:</td><td><div><table></table></div></td></tr><tr><td style="font-weight:bold;vertical-align:top;">cid</td><td style="vertical-align:top;">:</td><td><div>None</div></td></tr><tr><td style="font-weight:bold;vertical-align:top;">client</td><td style="vertical-align:top;">:</td><td><div>127.0.0.1</div></td></tr><tr><td style="font-weight:bold;vertical-align:top;">controller</td><td style="vertical-align:top;">:</td><td><div>01_conglomerado</div></td></tr><tr><td style="font-weight:bold;vertical-align:top;">cookies</td><td style="vertical-align:top;">:</td><td><div><table><tr><td style="font-weight:bold;vertical-align:top;">session_id_admin</td><td style="vertical-align:top;">:</td><td><div>127.0.0.1-41d983e9-1b3b-48a4-8286-7834eb7f0e5e<table><tr><td style="font-weight:bold;vertical-align:top;">comment</td><td style="vertical-align:top;">:</td><td><div></div></td></tr><tr><td style="font-weight:bold;vertical-align:top;">domain</td><td style="vertical-align:top;">:</td><td><div></div></td></tr><tr><td style="font-weight:bold;vertical-align:top;">expires</td><td style="vertical-align:top;">:</td><td><div></div></td></tr><tr><td style="font-weight:bold;vertical-align:top;">httponly</td><td style="vertical-align:top;">:</td><td><div></div></td></tr><tr><td style="font-weight:bold;vertical-align:top;">max-age</td><td style="vertical-align:top;">:</td><td><div></div></td></tr><tr><td style="font-weight:bold;vertical-align:top;">path</td><td style="vertical-align:top;">:</td><td><div></div></td></tr><tr><td style="font-weight:bold;vertical-align:top;">secure</td><td style="vertical-align:top;">:</td><td><div></div></td></tr><tr><td style="font-weight:bold;vertical-align:top;">version</td><td style="vertical-align:top;">:</td><td><div></div></td></tr></table></div></td></tr><tr><td style="font-weight:bold;vertical-align:top;">session_id_init</td><td style="vertical-align:top;">:</td><td><div>127.0.0.1-b50187e7-9f0a-487f-839a-17f0d7b16d1f<table><tr><td style="font-weight:bold;vertical-align:top;">comment</td><td style="vertical-align:top;">:</td><td><div></div></td></tr><tr><td style="font-weight:bold;vertical-align:top;">domain</td><td style="vertical-align:top;">:</td><td><div></div></td></tr><tr><td style="font-weight:bold;vertical-align:top;">expires</td><td style="vertical-align:top;">:</td><td><div></div></td></tr><tr><td style="font-weight:bold;vertical-align:top;">httponly</td><td style="vertical-align:top;">:</td><td><div></div></td></tr><tr><td style="font-weight:bold;vertical-align:top;">max-age</td><td style="vertical-align:top;">:</td><td><div></div></td></tr><tr><td style="font-weight:bold;vertical-align:top;">path</td><td style="vertical-align:top;">:</td><td><div></div></td></tr><tr><td style="font-weight:bold;vertical-align:top;">secure</td><td style="vertical-align:top;">:</td><td><div></div></td></tr><tr><td style="font-weight:bold;vertical-align:top;">version</td><td style="vertical-align:top;">:</td><td><div></div></td></tr></table></div></td></tr></table></div></td></tr><tr><td style="font-weight:bold;vertical-align:top;">env</td><td style="vertical-align:top;">:</td><td><div><table><tr><td style="font-weight:bold;vertical-align:top;">HTTP_ACCEPT</td><td style="vertical-align:top;">:</td><td><div>text/html,application/xhtml+xml,application/xml;q=0.9,image/webp,*/*;q=0.8</div></td></tr><tr><td style="font-weight:bold;vertical-align:top;">HTTP_ACCEPT_ENCODING</td><td style="vertical-align:top;">:</td><td><div>gzip, deflate, sdch</div></td></tr><tr><td style="font-weight:bold;vertical-align:top;">HTTP_ACCEPT_LANGUAGE</td><td style="vertical-align:top;">:</td><td><div>es-ES,es;q=0.8</div></td></tr><tr><td style="font-weight:bold;vertical-align:top;">HTTP_CONNECTION</td><td style="vertical-align:top;">:</td><td><div>keep-alive</div></td></tr><tr><td style="font-weight:bold;vertical-align:top;">HTTP_COOKIE</td><td style="vertical-align:top;">:</td><td><div>session_id_admin=127.0.0.1-41d983e9-1b3b-48a4-8286-7834eb7f0e5e; session_id_init=127.0.0.1-b50187e7-9f0a-487f-839a-17f0d7b16d1f</div></td></tr><tr><td style="font-weight:bold;vertical-align:top;">HTTP_HOST</td><td style="vertical-align:top;">:</td><td><div>127.0.0.1:8000</div></td></tr><tr><td style="font-weight:bold;vertical-align:top;">HTTP_REFERER</td><td style="vertical-align:top;">:</td><td><div>http://127.0.0.1:8000/</div></td></tr><tr><td style="font-weight:bold;vertical-align:top;">HTTP_UPGRADE_INSECURE_REQUESTS</td><td style="vertical-align:top;">:</td><td><div>1</div></td></tr><tr><td style="font-weight:bold;vertical-align:top;">HTTP_USER_AGENT</td><td style="vertical-align:top;">:</td><td><div>Mozilla/5.0 (Windows NT 6.1; WOW64) AppleWebKit/537.36 (KHTML, like Gecko) Chrome/53.0.2785.143 Safari/537.36</div></td></tr><tr><td style="font-weight:bold;vertical-align:top;">PATH_INFO</td><td style="vertical-align:top;">:</td><td><div>/init/01_conglomerado/index</div></td></tr><tr><td style="font-weight:bold;vertical-align:top;">QUERY_STRING</td><td style="vertical-align:top;">:</td><td><div></div></td></tr><tr><td style="font-weight:bold;vertical-align:top;">REMOTE_ADDR</td><td style="vertical-align:top;">:</td><td><div>127.0.0.1</div></td></tr><tr><td style="font-weight:bold;vertical-align:top;">REMOTE_PORT</td><td style="vertical-align:top;">:</td><td><div>49327</div></td></tr><tr><td style="font-weight:bold;vertical-align:top;">REQUEST_METHOD</td><td style="vertical-align:top;">:</td><td><div>GET</div></td></tr><tr><td style="font-weight:bold;vertical-align:top;">SCRIPT_NAME</td><td style="vertical-align:top;">:</td><td><div></div></td></tr><tr><td style="font-weight:bold;vertical-align:top;">SERVER_NAME</td><td style="vertical-align:top;">:</td><td><div>ArcGis-PC</div></td></tr><tr><td style="font-weight:bold;vertical-align:top;">SERVER_PORT</td><td style="vertical-align:top;">:</td><td><div>8000</div></td></tr><tr><td style="font-weight:bold;vertical-align:top;">SERVER_PROTOCOL</td><td style="vertical-align:top;">:</td><td><div>HTTP/1.1</div></td></tr><tr><td style="font-weight:bold;vertical-align:top;">SERVER_SOFTWARE</td><td style="vertical-align:top;">:</td><td><div>Rocket 1.2.6</div></td></tr><tr><td style="font-weight:bold;vertical-align:top;">app_folders</td><td style="vertical-align:top;">:</td><td><div>set([&#x27;C:\\\\Users\\\\ArcGis\\\\Documents\\\\cliente_sarmod_windows_v4\\\\cliente_sarmod_windows_v5\\\\cliente_snmb\\\\applications\\\\init\\\\&#x27;])</div></td></tr><tr><td style="font-weight:bold;vertical-align:top;">applications_parent</td><td style="vertical-align:top;">:</td><td><div>C:\\Users\\ArcGis\\Documents\\cliente_sarmod_windows_v4\\cliente_sarmod_windows_v5\\cliente_snmb</div></td></tr><tr><td style="font-weight:bold;vertical-align:top;">cmd_args</td><td style="vertical-align:top;">:</td><td><div><table></table></div></td></tr><tr><td style="font-weight:bold;vertical-align:top;">cmd_options</td><td style="vertical-align:top;">:</td><td><div>&lt;Values at 0x304e1e8: {&#x27;verbose&#x27;: False, &#x27;ip&#x27;: &#x27;127.0.0.1&#x27;, &#x27;debuglevel&#x27;: 30, &#x27;with_scheduler&#x27;: False, &#x27;ips&#x27;: [], &#x27;shutdown_timeout&#x27;: 5, &#x27;taskbar&#x27;: False, &#x27;with_coverage&#x27;: False, &#x27;scheduler_groups&#x27;: None, &#x27;port&#x27;: 8000, &#x27;maxthreads&#x27;: None, &#x27;softcron&#x27;: False, &#x27;server_name&#x27;: &#x27;ArcGis-PC&#x27;, &#x27;bpython&#x27;: False, &#x27;nogui&#x27;: False, &#x27;pid_filename&#x27;: &#x27;httpserver.pid&#x27;, &#x27;extcron&#x27;: False, &#x27;runcron&#x27;: False, &#x27;run_system_tests&#x27;: False, &#x27;test&#x27;: None, &#x27;folder&#x27;: &#x27;C:\\\\Users\\\\ArcGis\\\\Documents\\\\cliente_sarmod_windows_v4\\\\cliente_sarmod_windows_v5\\\\cliente_snmb&#x27;, &#x27;config&#x27;: &#x27;&#x27;, &#x27;minthreads&#x27;: None, &#x27;shell&#x27;: None, &#x27;run&#x27;: &#x27;&#x27;, &#x27;log_filename&#x27;: &#x27;httpserver.log&#x27;, &#x27;profiler_dir&#x27;: None, &#x27;args&#x27;: [&#x27;&#x27;], &#x27;socket_timeout&#x27;: 5, &#x27;ssl_ca_certificate&#x27;: None, &#x27;scheduler&#x27;: None, &#x27;interfaces&#x27;: None, &#x27;ssl_private_key&#x27;: &#x27;&#x27;, &#x27;gae&#x27;: None, &#x27;password&#x27;: &#x27;&lt;ask&gt;&#x27;, &#x27;request_queue_size&#x27;: 5, &#x27;ssl_certificate&#x27;: &#x27;&#x27;, &#x27;cronjob&#x27;: False, &#x27;numthreads&#x27;: None, &#x27;quiet&#x27;: False, &#x27;import_models&#x27;: False, &#x27;timeout&#x27;: 10, &#x27;plain&#x27;: False, &#x27;nobanner&#x27;: False}&gt;</div></td></tr><tr><td style="font-weight:bold;vertical-align:top;">db_sessions</td><td style="vertical-align:top;">:</td><td><div>set([])</div></td></tr><tr><td style="font-weight:bold;vertical-align:top;">debugging</td><td style="vertical-align:top;">:</td><td><div>False</div></td></tr><tr><td style="font-weight:bold;vertical-align:top;">gluon_parent</td><td style="vertical-align:top;">:</td><td><div>C:\\Users\\ArcGis\\Documents\\cliente_sarmod_windows_v4\\cliente_sarmod_windows_v5\\cliente_snmb</div></td></tr><tr><td style="font-weight:bold;vertical-align:top;">http_accept</td><td style="vertical-align:top;">:</td><td><div>text/html,application/xhtml+xml,application/xml;q=0.9,image/webp,*/*;q=0.8</div></td></tr><tr><td style="font-weight:bold;vertical-align:top;">http_accept_encoding</td><td style="vertical-align:top;">:</td><td><div>gzip, deflate, sdch</div></td></tr><tr><td style="font-weight:bold;vertical-align:top;">http_accept_language</td><td style="vertical-align:top;">:</td><td><div>es-ES,es;q=0.8</div></td></tr><tr><td style="font-weight:bold;vertical-align:top;">http_connection</td><td style="vertical-align:top;">:</td><td><div>keep-alive</div></td></tr><tr><td style="font-weight:bold;vertical-align:top;">http_cookie</td><td style="vertical-align:top;">:</td><td><div>session_id_admin=127.0.0.1-41d983e9-1b3b-48a4-8286-7834eb7f0e5e; session_id_init=127.0.0.1-b50187e7-9f0a-487f-839a-17f0d7b16d1f</div></td></tr><tr><td style="font-weight:bold;vertical-align:top;">http_host</td><td style="vertical-align:top;">:</td><td><div>127.0.0.1:8000</div></td></tr><tr><td style="font-weight:bold;vertical-align:top;">http_referer</td><td style="vertical-align:top;">:</td><td><div>http://127.0.0.1:8000/</div></td></tr><tr><td style="font-weight:bold;vertical-align:top;">http_upgrade_insecure_requests</td><td style="vertical-align:top;">:</td><td><div>1</div></td></tr><tr><td style="font-weight:bold;vertical-align:top;">http_user_agent</td><td style="vertical-align:top;">:</td><td><div>Mozilla/5.0 (Windows NT 6.1; WOW64) AppleWebKit/537.36 (KHTML, like Gecko) Chrome/53.0.2785.143 Safari/537.36</div></td></tr><tr><td style="font-weight:bold;vertical-align:top;">is_jython</td><td style="vertical-align:top;">:</td><td><div>False</div></td></tr><tr><td style="font-weight:bold;vertical-align:top;">is_pypy</td><td style="vertical-align:top;">:</td><td><div>False</div></td></tr><tr><td style="font-weight:bold;vertical-align:top;">is_source</td><td style="vertical-align:top;">:</td><td><div>False</div></td></tr><tr><td style="font-weight:bold;vertical-align:top;">local_hosts</td><td style="vertical-align:top;">:</td><td><div><table><tr><td><div>fe80::40fc:8875:ba92:55b5%11</div></td></tr><tr><td><div>::ffff:127.0.0.1</div></td></tr><tr><td><div>::1</div></td></tr><tr><td><div>ArcGis-PC</div></td></tr><tr><td><div>10.0.2.15</div></td></tr><tr><td><div>ArcGis-PC.conabio.gob.mx</div></td></tr><tr><td><div>127.0.0.1</div></td></tr></table></div></td></tr><tr><td style="font-weight:bold;vertical-align:top;">path_info</td><td style="vertical-align:top;">:</td><td><div>/init/01_conglomerado/index</div></td></tr><tr><td style="font-weight:bold;vertical-align:top;">query_string</td><td style="vertical-align:top;">:</td><td><div></div></td></tr><tr><td style="font-weight:bold;vertical-align:top;">remote_addr</td><td style="vertical-align:top;">:</td><td><div>127.0.0.1</div></td></tr><tr><td style="font-weight:bold;vertical-align:top;">remote_port</td><td style="vertical-align:top;">:</td><td><div>49327</div></td></tr><tr><td style="font-weight:bold;vertical-align:top;">request_method</td><td style="vertical-align:top;">:</td><td><div>GET</div></td></tr><tr><td style="font-weight:bold;vertical-align:top;">request_uri</td><td style="vertical-align:top;">:</td><td><div>/init/01_conglomerado/index</div></td></tr><tr><td style="font-weight:bold;vertical-align:top;">script_name</td><td style="vertical-align:top;">:</td><td><div></div></td></tr><tr><td style="font-weight:bold;vertical-align:top;">server_name</td><td style="vertical-align:top;">:</td><td><div>ArcGis-PC</div></td></tr><tr><td style="font-weight:bold;vertical-align:top;">server_port</td><td style="vertical-align:top;">:</td><td><div>8000</div></td></tr><tr><td style="font-weight:bold;vertical-align:top;">server_protocol</td><td style="vertical-align:top;">:</td><td><div>HTTP/1.1</div></td></tr><tr><td style="font-weight:bold;vertical-align:top;">server_software</td><td style="vertical-align:top;">:</td><td><div>Rocket 1.2.6</div></td></tr><tr><td style="font-weight:bold;vertical-align:top;">web2py_path</td><td style="vertical-align:top;">:</td><td><div>C:\\Users\\ArcGis\\Documents\\cliente_sarmod_windows_v4\\cliente_sarmod_windows_v5\\cliente_snmb</div></td></tr><tr><td style="font-weight:bold;vertical-align:top;">web2py_version</td><td style="vertical-align:top;">:</td><td><div>2.9.11-stable+timestamp.2014.09.15.23.35.11</div></td></tr><tr><td style="font-weight:bold;vertical-align:top;">wsgi.errors</td><td style="vertical-align:top;">:</td><td><div>&lt;open file &#x27;&lt;stderr&gt;&#x27;, mode &#x27;w&#x27; at 0x003260D0&gt;</div></td></tr><tr><td style="font-weight:bold;vertical-align:top;">wsgi.file_wrapper</td><td style="vertical-align:top;">:</td><td><div>&lt;class wsgiref.util.FileWrapper at 0x02270C70&gt;</div></td></tr><tr><td style="font-weight:bold;vertical-align:top;">wsgi.input</td><td style="vertical-align:top;">:</td><td><div>&lt;socket._fileobject object at 0x0304BA30&gt;</div></td></tr><tr><td style="font-weight:bold;vertical-align:top;">wsgi.multiprocess</td><td style="vertical-align:top;">:</td><td><div>False</div></td></tr><tr><td style="font-weight:bold;vertical-align:top;">wsgi.multithread</td><td style="vertical-align:top;">:</td><td><div>True</div></td></tr><tr><td style="font-weight:bold;vertical-align:top;">wsgi.run_once</td><td style="vertical-align:top;">:</td><td><div>False</div></td></tr><tr><td style="font-weight:bold;vertical-align:top;">wsgi.url_scheme</td><td style="vertical-align:top;">:</td><td><div>http</div></td></tr><tr><td style="font-weight:bold;vertical-align:top;">wsgi.version</td><td style="vertical-align:top;">:</td><td><div><table><tr><td><div>1</div></td></tr><tr><td><div>0</div></td></tr></table></div></td></tr><tr><td style="font-weight:bold;vertical-align:top;">wsgi_errors</td><td style="vertical-align:top;">:</td><td><div>&lt;open file &#x27;&lt;stderr&gt;&#x27;, mode &#x27;w&#x27; at 0x003260D0&gt;</div></td></tr><tr><td style="font-weight:bold;vertical-align:top;">wsgi_file_wrapper</td><td style="vertical-align:top;">:</td><td><div>&lt;class wsgiref.util.FileWrapper at 0x02270C70&gt;</div></td></tr><tr><td style="font-weight:bold;vertical-align:top;">wsgi_input</td><td style="vertical-align:top;">:</td><td><div>&lt;socket._fileobject object at 0x0304BA30&gt;</div></td></tr><tr><td style="font-weight:bold;vertical-align:top;">wsgi_multiprocess</td><td style="vertical-align:top;">:</td><td><div>False</div></td></tr><tr><td style="font-weight:bold;vertical-align:top;">wsgi_multithread</td><td style="vertical-align:top;">:</td><td><div>True</div></td></tr><tr><td style="font-weight:bold;vertical-align:top;">wsgi_run_once</td><td style="vertical-align:top;">:</td><td><div>False</div></td></tr><tr><td style="font-weight:bold;vertical-align:top;">wsgi_url_scheme</td><td style="vertical-align:top;">:</td><td><div>http</div></td></tr><tr><td style="font-weight:bold;vertical-align:top;">wsgi_version</td><td style="vertical-align:top;">:</td><td><div><table><tr><td><div>1</div></td></tr><tr><td><div>0</div></td></tr></table></div></td></tr></table></div></td></tr><tr><td style="font-weight:bold;vertical-align:top;">extension</td><td style="vertical-align:top;">:</td><td><div>html</div></td></tr><tr><td style="font-weight:bold;vertical-align:top;">folder</td><td style="vertical-align:top;">:</td><td><div>C:\\Users\\ArcGis\\Documents\\cliente_sarmod_windows_v4\\cliente_sarmod_windows_v5\\cliente_snmb\\applications\\init\\</div></td></tr><tr><td style="font-weight:bold;vertical-align:top;">function</td><td style="vertical-align:top;">:</td><td><div>index</div></td></tr><tr><td style="font-weight:bold;vertical-align:top;">global_settings</td><td style="vertical-align:top;">:</td><td><div><table><tr><td style="font-weight:bold;vertical-align:top;">app_folders</td><td style="vertical-align:top;">:</td><td><div>set([&#x27;C:\\\\Users\\\\ArcGis\\\\Documents\\\\cliente_sarmod_windows_v4\\\\cliente_sarmod_windows_v5\\\\cliente_snmb\\\\applications\\\\init\\\\&#x27;])</div></td></tr><tr><td style="font-weight:bold;vertical-align:top;">applications_parent</td><td style="vertical-align:top;">:</td><td><div>C:\\Users\\ArcGis\\Documents\\cliente_sarmod_windows_v4\\cliente_sarmod_windows_v5\\cliente_snmb</div></td></tr><tr><td style="font-weight:bold;vertical-align:top;">cmd_args</td><td style="vertical-align:top;">:</td><td><div><table></table></div></td></tr><tr><td style="font-weight:bold;vertical-align:top;">cmd_options</td><td style="vertical-align:top;">:</td><td><div>&lt;Values at 0x304e1e8: {&#x27;verbose&#x27;: False, &#x27;ip&#x27;: &#x27;127.0.0.1&#x27;, &#x27;debuglevel&#x27;: 30, &#x27;with_scheduler&#x27;: False, &#x27;ips&#x27;: [], &#x27;shutdown_timeout&#x27;: 5, &#x27;taskbar&#x27;: False, &#x27;with_coverage&#x27;: False, &#x27;scheduler_groups&#x27;: None, &#x27;port&#x27;: 8000, &#x27;maxthreads&#x27;: None, &#x27;softcron&#x27;: False, &#x27;server_name&#x27;: &#x27;ArcGis-PC&#x27;, &#x27;bpython&#x27;: False, &#x27;nogui&#x27;: False, &#x27;pid_filename&#x27;: &#x27;httpserver.pid&#x27;, &#x27;extcron&#x27;: False, &#x27;runcron&#x27;: False, &#x27;run_system_tests&#x27;: False, &#x27;test&#x27;: None, &#x27;folder&#x27;: &#x27;C:\\\\Users\\\\ArcGis\\\\Documents\\\\cliente_sarmod_windows_v4\\\\cliente_sarmod_windows_v5\\\\cliente_snmb&#x27;, &#x27;config&#x27;: &#x27;&#x27;, &#x27;minthreads&#x27;: None, &#x27;shell&#x27;: None, &#x27;run&#x27;: &#x27;&#x27;, &#x27;log_filename&#x27;: &#x27;httpserver.log&#x27;, &#x27;profiler_dir&#x27;: None, &#x27;args&#x27;: [&#x27;&#x27;], &#x27;socket_timeout&#x27;: 5, &#x27;ssl_ca_certificate&#x27;: None, &#x27;scheduler&#x27;: None, &#x27;interfaces&#x27;: None, &#x27;ssl_private_key&#x27;: &#x27;&#x27;, &#x27;gae&#x27;: None, &#x27;password&#x27;: &#x27;&lt;ask&gt;&#x27;, &#x27;request_queue_size&#x27;: 5, &#x27;ssl_certificate&#x27;: &#x27;&#x27;, &#x27;cronjob&#x27;: False, &#x27;numthreads&#x27;: None, &#x27;quiet&#x27;: False, &#x27;import_models&#x27;: False, &#x27;timeout&#x27;: 10, &#x27;plain&#x27;: False, &#x27;nobanner&#x27;: False}&gt;</div></td></tr><tr><td style="font-weight:bold;vertical-align:top;">db_sessions</td><td style="vertical-align:top;">:</td><td><div>set([])</div></td></tr><tr><td style="font-weight:bold;vertical-align:top;">debugging</td><td style="vertical-align:top;">:</td><td><div>False</div></td></tr><tr><td style="font-weight:bold;vertical-align:top;">gluon_parent</td><td style="vertical-align:top;">:</td><td><div>C:\\Users\\ArcGis\\Documents\\cliente_sarmod_windows_v4\\cliente_sarmod_windows_v5\\cliente_snmb</div></td></tr><tr><td style="font-weight:bold;vertical-align:top;">is_jython</td><td style="vertical-align:top;">:</td><td><div>False</div></td></tr><tr><td style="font-weight:bold;vertical-align:top;">is_pypy</td><td style="vertical-align:top;">:</td><td><div>False</div></td></tr><tr><td style="font-weight:bold;vertical-align:top;">is_source</td><td style="vertical-align:top;">:</td><td><div>False</div></td></tr><tr><td style="font-weight:bold;vertical-align:top;">local_hosts</td><td style="vertical-align:top;">:</td><td><div><table><tr><td><div>fe80::40fc:8875:ba92:55b5%11</div></td></tr><tr><td><div>::ffff:127.0.0.1</div></td></tr><tr><td><div>::1</div></td></tr><tr><td><div>ArcGis-PC</div></td></tr><tr><td><div>10.0.2.15</div></td></tr><tr><td><div>ArcGis-PC.conabio.gob.mx</div></td></tr><tr><td><div>127.0.0.1</div></td></tr></table></div></td></tr><tr><td style="font-weight:bold;vertical-align:top;">web2py_version</td><td style="vertical-align:top;">:</td><td><div>2.9.11-stable+timestamp.2014.09.15.23.35.11</div></td></tr></table></div></td></tr><tr><td style="font-weight:bold;vertical-align:top;">is_https</td><td style="vertical-align:top;">:</td><td><div>False</div></td></tr><tr><td style="font-weight:bold;vertical-align:top;">is_local</td><td style="vertical-align:top;">:</td><td><div>True</div></td></tr><tr><td style="font-weight:bold;vertical-align:top;">is_restful</td><td style="vertical-align:top;">:</td><td><div>False</div></td></tr><tr><td style="font-weight:bold;vertical-align:top;">is_sheduler</td><td style="vertical-align:top;">:</td><td><div>None</div></td></tr><tr><td style="font-weight:bold;vertical-align:top;">is_shell</td><td style="vertical-align:top;">:</td><td><div>None</div></td></tr><tr><td style="font-weight:bold;vertical-align:top;">now</td><td style="vertical-align:top;">:</td><td><div>datetime.datetime(2016, 10, 19, 16, 7, 53, 287000)</div></td></tr><tr><td style="font-weight:bold;vertical-align:top;">raw_args</td><td style="vertical-align:top;">:</td><td><div></div></td></tr><tr><td style="font-weight:bold;vertical-align:top;">raw_extension</td><td style="vertical-align:top;">:</td><td><div>None</div></td></tr><tr><td style="font-weight:bold;vertical-align:top;">url</td><td style="vertical-align:top;">:</td><td><div>/init/01_conglomerado/index</div></td></tr><tr><td style="font-weight:bold;vertical-align:top;">utcnow</td><td style="vertical-align:top;">:</td><td><div>datetime.datetime(2016, 10, 19, 21, 7, 53, 287000)</div></td></tr><tr><td style="font-weight:bold;vertical-align:top;">uuid</td><td style="vertical-align:top;">:</td><td><div>init/127.0.0.1.2016-10-19.16-07-53.78a970fc-ff19-4f0a-b46d-4673720ec02e</div></td></tr><tr><td style="font-weight:bold;vertical-align:top;">wsgi</td><td style="vertical-align:top;">:</td><td><div>&lt;gluon.main.LazyWSGI object at 0x07553AF0&gt;</div></td></tr></table></div>'
tRp58
sS'frames'
p59
(lp60
(dp61
S'file'
p62
S'C:\\Users\\ArcGis\\Documents\\cliente_sarmod_windows_v4\\cliente_sarmod_windows_v5\\cliente_snmb\\gluon\\restricted.py'
p63
sS'dump'
p64
(dp65
sS'lnum'
p66
I224
sS'lines'
p67
(dp68
sS'call'
p69
S"(code='# coding: utf8\\n\\nimport estructura_archivos_admin...esultado\\n\\nresponse._vars=response._caller(index)\\n', environment={'A': <class 'gluon.html.A'>, 'ANY_OF': <class 'gluon.validators.ANY_OF'>, 'ASSIGNJS': <function ASSIGNJS>, 'Auth': <class 'gluon.tools.Auth'>, 'B': <class 'gluon.html.B'>, 'BEAUTIFY': <class 'gluon.html.BEAUTIFY'>, 'BODY': <class 'gluon.html.BODY'>, 'BR': <class 'gluon.html.BR'>, 'BUTTON': <class 'gluon.html.BUTTON'>, 'CAT': <class 'gluon.html.CAT'>, ...}, layer=r'C:\\Users\\ArcGis\\Documents\\cliente_sarmod_windows...\\applications\\init\\controllers/01_conglomerado.py')"
p70
sS'func'
p71
S'restricted'
p72
sa(dp73
g62
S'C:\\Users\\ArcGis\\Documents\\cliente_sarmod_windows_v4\\cliente_sarmod_windows_v5\\cliente_snmb\\applications\\init\\controllers\\01_conglomerado.py'
p74
sg64
(dp75
S'eaa'
p76
S'undefined'
p77
sS'estructura_archivos_admin'
p78
g77
ssg66
I3
sg67
(dp79
I2
S''
sI3
S'import estructura_archivos_admin as eaa'
p80
sI4
S''
sI5
S'def index():'
p81
sI6
S''
sI7
S'\t## Controlador correspondiente a la pesta\xc3\xb1a "Conglomerado", de la secci\xc3\xb3n'
p82
sI8
S'\t## hom\xc3\xb3nima.'
p83
sI9
S''
sI10
S'\tcampos = ['
p84
sI11
S''
ssg69
S'()'
p85
sg71
S'<module>'
p86
sa(dp87
g62
S'C:\\Users\\ArcGis\\Documents\\cliente_sarmod_windows_v4\\cliente_sarmod_windows_v5\\cliente_snmb\\gluon\\custom_import.py'
p88
sg64
(dp89
sg66
I86
sg67
(dp90
sg69
S"(name='estructura_archivos_admin', globals={'A': <class 'gluon.html.A'>, 'ANY_OF': <class 'gluon.validators.ANY_OF'>, 'ASSIGNJS': <function ASSIGNJS>, 'Auth': <class 'gluon.tools.Auth'>, 'B': <class 'gluon.html.B'>, 'BEAUTIFY': <class 'gluon.html.BEAUTIFY'>, 'BODY': <class 'gluon.html.BODY'>, 'BR': <class 'gluon.html.BR'>, 'BUTTON': <class 'gluon.html.BUTTON'>, 'CAT': <class 'gluon.html.CAT'>, ...}, locals={'A': <class 'gluon.html.A'>, 'ANY_OF': <class 'gluon.validators.ANY_OF'>, 'ASSIGNJS': <function ASSIGNJS>, 'Auth': <class 'gluon.tools.Auth'>, 'B': <class 'gluon.html.B'>, 'BEAUTIFY': <class 'gluon.html.BEAUTIFY'>, 'BODY': <class 'gluon.html.BODY'>, 'BR': <class 'gluon.html.BR'>, 'BUTTON': <class 'gluon.html.BUTTON'>, 'CAT': <class 'gluon.html.CAT'>, ...}, fromlist=[], level=-1)"
p91
sg71
S'custom_importer'
p92
sasS'pyver'
p93
S'Python 2.7.6: C:\\Users\\ArcGis\\Documents\\cliente_sarmod_windows_v4\\cliente_sarmod_windows_v5\\cliente_snmb\\web2py.exe (prefix: )'
p94
sS'session'
p95
g57
(S's\x1a\x00\x00\x00<div><table></table></div>'
tRp96
sS'etype'
p97
S"<type 'exceptions.ImportError'>"
p98
sS'date'
p99
S'Wed Oct 19 16:07:53 2016'
p100
sS'response'
p101
g57
(S's\xc8A\x00\x00<div><table><tr><td style="font-weight:bold;vertical-align:top;">body</td><td style="vertical-align:top;">:</td><td><div>&lt;cStringIO.StringO object at 0x07952F60&gt;</div></td></tr><tr><td style="font-weight:bold;vertical-align:top;">cookies</td><td style="vertical-align:top;">:</td><td><div><table><tr><td style="font-weight:bold;vertical-align:top;">session_id_init</td><td style="vertical-align:top;">:</td><td><div>127.0.0.1-b50187e7-9f0a-487f-839a-17f0d7b16d1f<table><tr><td style="font-weight:bold;vertical-align:top;">comment</td><td style="vertical-align:top;">:</td><td><div></div></td></tr><tr><td style="font-weight:bold;vertical-align:top;">domain</td><td style="vertical-align:top;">:</td><td><div></div></td></tr><tr><td style="font-weight:bold;vertical-align:top;">expires</td><td style="vertical-align:top;">:</td><td><div></div></td></tr><tr><td style="font-weight:bold;vertical-align:top;">httponly</td><td style="vertical-align:top;">:</td><td><div></div></td></tr><tr><td style="font-weight:bold;vertical-align:top;">max-age</td><td style="vertical-align:top;">:</td><td><div></div></td></tr><tr><td style="font-weight:bold;vertical-align:top;">path</td><td style="vertical-align:top;">:</td><td><div>/</div></td></tr><tr><td style="font-weight:bold;vertical-align:top;">secure</td><td style="vertical-align:top;">:</td><td><div></div></td></tr><tr><td style="font-weight:bold;vertical-align:top;">version</td><td style="vertical-align:top;">:</td><td><div></div></td></tr></table></div></td></tr></table></div></td></tr><tr><td style="font-weight:bold;vertical-align:top;">delimiters</td><td style="vertical-align:top;">:</td><td><div><table><tr><td><div>{{</div></td></tr><tr><td><div>}}</div></td></tr></table></div></td></tr><tr><td style="font-weight:bold;vertical-align:top;">files</td><td style="vertical-align:top;">:</td><td><div><table></table></div></td></tr><tr><td style="font-weight:bold;vertical-align:top;">flash</td><td style="vertical-align:top;">:</td><td><div></div></td></tr><tr><td style="font-weight:bold;vertical-align:top;">form_label_separator</td><td style="vertical-align:top;">:</td><td><div>: </div></td></tr><tr><td style="font-weight:bold;vertical-align:top;">formstyle</td><td style="vertical-align:top;">:</td><td><div>table3cols</div></td></tr><tr><td style="font-weight:bold;vertical-align:top;">generic_patterns</td><td style="vertical-align:top;">:</td><td><div><table><tr><td><div>*</div></td></tr></table></div></td></tr><tr><td style="font-weight:bold;vertical-align:top;">google_analytics_id</td><td style="vertical-align:top;">:</td><td><div>None</div></td></tr><tr><td style="font-weight:bold;vertical-align:top;">headers</td><td style="vertical-align:top;">:</td><td><div><table><tr><td style="font-weight:bold;vertical-align:top;">X-Powered-By</td><td style="vertical-align:top;">:</td><td><div>web2py</div></td></tr></table></div></td></tr><tr><td style="font-weight:bold;vertical-align:top;">menu</td><td style="vertical-align:top;">:</td><td><div><table><tr><td><div><table><tr><td><div>Inicio</div></td></tr><tr><td><div>False</div></td></tr><tr><td><div>/init/default/index</div></td></tr><tr><td><div><table></table></div></td></tr></table></div></td></tr><tr><td><div><table><tr><td><div>Conglomerado</div></td></tr><tr><td><div>False</div></td></tr><tr><td><div>/init/01_conglomerado/index</div></td></tr><tr><td><div><table></table></div></td></tr></table></div></td></tr><tr><td><div><table><tr><td><div>Conteo de aves</div></td></tr><tr><td><div>False</div></td></tr><tr><td><div>/init/06_conteo_aves/index1</div></td></tr><tr><td><div><table><tr><td><div><table><tr><td><div>Punto de conteo</div></td></tr><tr><td><div>False</div></td></tr><tr><td><div>/init/06_conteo_aves/index1</div></td></tr></table></div></td></tr><tr><td><div><table><tr><td><div>Avistamientos</div></td></tr><tr><td><div>False</div></td></tr><tr><td><div>/init/06_conteo_aves/index2</div></td></tr></table></div></td></tr></table></div></td></tr></table></div></td></tr><tr><td><div><table><tr><td><div>Especies invasoras y huellas/excretas</div></td></tr><tr><td><div>False</div></td></tr><tr><td><div>/init/04_invasoras_huellas_excretas/index1</div></td></tr><tr><td><div><table><tr><td><div><table><tr><td><div>Transectos</div></td></tr><tr><td><div>False</div></td></tr><tr><td><div>/init/04_invasoras_huellas_excretas/index1</div></td></tr></table></div></td></tr><tr><td><div><table><tr><td><div>Registros especies invasoras</div></td></tr><tr><td><div>False</div></td></tr><tr><td><div>/init/04_invasoras_huellas_excretas/index2</div></td></tr></table></div></td></tr><tr><td><div><table><tr><td><div>Registros huellas y excretas</div></td></tr><tr><td><div>False</div></td></tr><tr><td><div>/init/04_invasoras_huellas_excretas/index3</div></td></tr></table></div></td></tr></table></div></td></tr></table></div></td></tr><tr><td><div><table><tr><td><div>Vegetaci\xc3\xb3n y suelo</div></td></tr><tr><td><div>False</div></td></tr><tr><td><div>/init/07_vegetacion_suelo/index1</div></td></tr><tr><td><div><table><tr><td><div><table><tr><td><div>Material le\xc3\xb1oso ca\xc3\xaddo</div></td></tr><tr><td><div>False</div></td></tr><tr><td><div>/init/07_vegetacion_suelo/index1</div></td></tr></table></div></td></tr><tr><td><div><table><tr><td><div>Material 1000h</div></td></tr><tr><td><div>False</div></td></tr><tr><td><div>/init/07_vegetacion_suelo/index2</div></td></tr></table></div></td></tr><tr><td><div><table><tr><td><div>Carbono en el mantillo</div></td></tr><tr><td><div>False</div></td></tr><tr><td><div>/init/07_vegetacion_suelo/index3</div></td></tr></table></div></td></tr><tr><td><div><table><tr><td><div>\xc3\x81rboles peque\xc3\xb1os y arbustos</div></td></tr><tr><td><div>False</div></td></tr><tr><td><div>/init/07_vegetacion_suelo/index4</div></td></tr></table></div></td></tr><tr><td><div><table><tr><td><div>\xc3\x81rboles grandes</div></td></tr><tr><td><div>False</div></td></tr><tr><td><div>/init/07_vegetacion_suelo/index5</div></td></tr></table></div></td></tr><tr><td><div><table><tr><td><div>Ep\xc3\xadfitas</div></td></tr><tr><td><div>False</div></td></tr><tr><td><div>/init/07_vegetacion_suelo/index6</div></td></tr></table></div></td></tr></table></div></td></tr></table></div></td></tr><tr><td><div><table><tr><td><div>Impactos ambientales</div></td></tr><tr><td><div>False</div></td></tr><tr><td><div>/init/08_impactos_ambientales/index3</div></td></tr><tr><td><div><table><tr><td><div><table><tr><td><div>Incendios</div></td></tr><tr><td><div>False</div></td></tr><tr><td><div>/init/08_impactos_ambientales/index3</div></td></tr></table></div></td></tr><tr><td><div><table><tr><td><div>Plagas</div></td></tr><tr><td><div>False</div></td></tr><tr><td><div>/init/08_impactos_ambientales/index2</div></td></tr></table></div></td></tr><tr><td><div><table><tr><td><div>Impactos actuales</div></td></tr><tr><td><div>False</div></td></tr><tr><td><div>/init/08_impactos_ambientales/index1</div></td></tr></table></div></td></tr></table></div></td></tr></table></div></td></tr><tr><td><div><table><tr><td><div>Trampa c\xc3\xa1mara</div></td></tr><tr><td><div>False</div></td></tr><tr><td><div>/init/02_camara/index1</div></td></tr><tr><td><div><table><tr><td><div><table><tr><td><div>Informaci\xc3\xb3n de trampa c\xc3\xa1mara</div></td></tr><tr><td><div>False</div></td></tr><tr><td><div>/init/02_camara/index1</div></td></tr></table></div></td></tr><tr><td><div><table><tr><td><div>Archivos trampa c\xc3\xa1mara</div></td></tr><tr><td><div>False</div></td></tr><tr><td><div>/init/02_camara/index2</div></td></tr></table></div></td></tr><tr><td><div><table><tr><td><div>Selecci\xc3\xb3n de fauna</div></td></tr><tr><td><div>False</div></td></tr><tr><td><div>/init/02_camara/index3</div></td></tr></table></div></td></tr></table></div></td></tr></table></div></td></tr><tr><td><div><table><tr><td><div>Grabadora</div></td></tr><tr><td><div>False</div></td></tr><tr><td><div>/init/03_grabadora/index1</div></td></tr><tr><td><div><table><tr><td><div><table><tr><td><div>Informaci\xc3\xb3n de grabadora</div></td></tr><tr><td><div>False</div></td></tr><tr><td><div>/init/03_grabadora/index1</div></td></tr></table></div></td></tr><tr><td><div><table><tr><td><div>Archivos de audio</div></td></tr><tr><td><div>False</div></td></tr><tr><td><div>/init/03_grabadora/index2</div></td></tr></table></div></td></tr></table></div></td></tr></table></div></td></tr><tr><td><div><table><tr><td><div>Registros extra</div></td></tr><tr><td><div>False</div></td></tr><tr><td><div>/init/05_registros_extra/index1</div></td></tr><tr><td><div><table><tr><td><div><table><tr><td><div>Especies invasoras</div></td></tr><tr><td><div>False</div></td></tr><tr><td><div>/init/05_registros_extra/index1</div></td></tr></table></div></td></tr><tr><td><div><table><tr><td><div>Huellas y excretas</div></td></tr><tr><td><div>False</div></td></tr><tr><td><div>/init/05_registros_extra/index2</div></td></tr></table></div></td></tr><tr><td><div><table><tr><td><div>Espec\xc3\xadmenes y restos</div></td></tr><tr><td><div>False</div></td></tr><tr><td><div>/init/05_registros_extra/index3</div></td></tr></table></div></td></tr></table></div></td></tr></table></div></td></tr><tr><td><div><table><tr><td><div>Revisar registros</div></td></tr><tr><td><div>False</div></td></tr><tr><td><div>/init/09_revisar_registros/conglomerado</div></td></tr><tr><td><div><table><tr><td><div><table><tr><td><div>Conglomerado</div></td></tr><tr><td><div>False</div></td></tr><tr><td><div>/init/09_revisar_registros/conglomerado</div></td></tr></table></div></td></tr><tr><td><div><table><tr><td><div>Conteo de aves</div></td></tr><tr><td><div>False</div></td></tr><tr><td><div>/init/09_revisar_registros/punto_conteo_aves</div></td></tr></table></div></td></tr><tr><td><div><table><tr><td><div>Especies invasoras y huellas/excretas</div></td></tr><tr><td><div>False</div></td></tr><tr><td><div>/init/09_revisar_registros/transecto_muestra</div></td></tr></table></div></td></tr><tr><td><div><table><tr><td><div>Material le\xc3\xb1oso ca\xc3\xaddo</div></td></tr><tr><td><div>False</div></td></tr><tr><td><div>/init/09_revisar_registros/transecto_ramas</div></td></tr></table></div></td></tr><tr><td><div><table><tr><td><div>Carbono en el mantillo</div></td></tr><tr><td><div>False</div></td></tr><tr><td><div>/init/09_revisar_registros/punto_carbono</div></td></tr></table></div></td></tr><tr><td><div><table><tr><td><div>\xc3\x81rboles peque\xc3\xb1os</div></td></tr><tr><td><div>False</div></td></tr><tr><td><div>/init/09_revisar_registros/arbol_transecto</div></td></tr></table></div></td></tr><tr><td><div><table><tr><td><div>\xc3\x81rboles grandes</div></td></tr><tr><td><div>False</div></td></tr><tr><td><div>/init/09_revisar_registros/arbol_cuadrante</div></td></tr></table></div></td></tr><tr><td><div><table><tr><td><div>Ep\xc3\xadfitas</div></td></tr><tr><td><div>False</div></td></tr><tr><td><div>/init/09_revisar_registros/informacion_epifitas</div></td></tr></table></div></td></tr><tr><td><div><table><tr><td><div>Incendios</div></td></tr><tr><td><div>False</div></td></tr><tr><td><div>/init/09_revisar_registros/incendio</div></td></tr></table></div></td></tr><tr><td><div><table><tr><td><div>Plagas</div></td></tr><tr><td><div>False</div></td></tr><tr><td><div>/init/09_revisar_registros/plaga</div></td></tr></table></div></td></tr><tr><td><div><table><tr><td><div>Impactos ambientales</div></td></tr><tr><td><div>False</div></td></tr><tr><td><div>/init/09_revisar_registros/impacto_actual</div></td></tr></table></div></td></tr><tr><td><div><table><tr><td><div>Trampa c\xc3\xa1mara</div></td></tr><tr><td><div>False</div></td></tr><tr><td><div>/init/09_revisar_registros/camara</div></td></tr></table></div></td></tr><tr><td><div><table><tr><td><div>Grabadora</div></td></tr><tr><td><div>False</div></td></tr><tr><td><div>/init/09_revisar_registros/grabadora</div></td></tr></table></div></td></tr><tr><td><div><table><tr><td><div>Especies invasoras extra</div></td></tr><tr><td><div>False</div></td></tr><tr><td><div>/init/09_revisar_registros/especie_invasora_extra</div></td></tr></table></div></td></tr><tr><td><div><table><tr><td><div>Huellas/excretas extra</div></td></tr><tr><td><div>False</div></td></tr><tr><td><div>/init/09_revisar_registros/huella_excreta_extra</div></td></tr></table></div></td></tr><tr><td><div><table><tr><td><div>Espec\xc3\xadmenes/restos extra</div></td></tr><tr><td><div>False</div></td></tr><tr><td><div>/init/09_revisar_registros/especimen_restos_extra</div></td></tr></table></div></td></tr></table></div></td></tr></table></div></td></tr><tr><td><div><table><tr><td><div>Exportar datos</div></td></tr><tr><td><div>False</div></td></tr><tr><td><div>/init/10_exportar_datos/index</div></td></tr><tr><td><div><table></table></div></td></tr></table></div></td></tr></table></div></td></tr><tr><td style="font-weight:bold;vertical-align:top;">meta</td><td style="vertical-align:top;">:</td><td><div><table><tr><td style="font-weight:bold;vertical-align:top;">author</td><td style="vertical-align:top;">:</td><td><div>Your Name &lt;you@example.com&gt;</div></td></tr><tr><td style="font-weight:bold;vertical-align:top;">generator</td><td style="vertical-align:top;">:</td><td><div>Web2py Web Framework</div></td></tr><tr><td style="font-weight:bold;vertical-align:top;">keywords</td><td style="vertical-align:top;">:</td><td><div>web2py, python, framework</div></td></tr></table></div></td></tr><tr><td style="font-weight:bold;vertical-align:top;">models_to_run</td><td style="vertical-align:top;">:</td><td><div><table><tr><td><div>^\\w+\\.py$</div></td></tr><tr><td><div>^01_conglomerado/\\w+\\.py$</div></td></tr><tr><td><div>^01_conglomerado/index/\\w+\\.py$</div></td></tr></table></div></td></tr><tr><td style="font-weight:bold;vertical-align:top;">postprocessing</td><td style="vertical-align:top;">:</td><td><div><table></table></div></td></tr><tr><td style="font-weight:bold;vertical-align:top;">session_client</td><td style="vertical-align:top;">:</td><td><div>127.0.0.1</div></td></tr><tr><td style="font-weight:bold;vertical-align:top;">session_cookie_compression_level</td><td style="vertical-align:top;">:</td><td><div>None</div></td></tr><tr><td style="font-weight:bold;vertical-align:top;">session_cookie_expires</td><td style="vertical-align:top;">:</td><td><div>None</div></td></tr><tr><td style="font-weight:bold;vertical-align:top;">session_cookie_key</td><td style="vertical-align:top;">:</td><td><div>None</div></td></tr><tr><td style="font-weight:bold;vertical-align:top;">session_data_name</td><td style="vertical-align:top;">:</td><td><div>session_data_init</div></td></tr><tr><td style="font-weight:bold;vertical-align:top;">session_file</td><td style="vertical-align:top;">:</td><td><div>&lt;open file &#x27;C:\\\\Users\\\\ArcGis\\\\Documents\\\\cliente_sarmod_windows_v4\\\\cliente_sarmod_windows_v5\\\\cliente_snmb\\\\applications\\\\init\\\\sessions\\\\146\\\\048\\\\127.0.0.1-b50187e7-9f0a-487f-839a-17f0d7b16d1f&#x27;, mode &#x27;rb+&#x27; at 0x034227B0&gt;</div></td></tr><tr><td style="font-weight:bold;vertical-align:top;">session_filename</td><td style="vertical-align:top;">:</td><td><div>C:\\Users\\ArcGis\\Documents\\cliente_sarmod_windows_v4\\cliente_sarmod_windows_v5\\cliente_snmb\\applications\\init\\sessions\\127.0.0.1-b50187e7-9f0a-487f-839a-17f0d7b16d1f</div></td></tr><tr><td style="font-weight:bold;vertical-align:top;">session_hash</td><td style="vertical-align:top;">:</td><td><div>a43a3c3f1b3e40bf50621c3639329ef9</div></td></tr><tr><td style="font-weight:bold;vertical-align:top;">session_id</td><td style="vertical-align:top;">:</td><td><div>127.0.0.1-b50187e7-9f0a-487f-839a-17f0d7b16d1f</div></td></tr><tr><td style="font-weight:bold;vertical-align:top;">session_id_name</td><td style="vertical-align:top;">:</td><td><div>session_id_init</div></td></tr><tr><td style="font-weight:bold;vertical-align:top;">session_locked</td><td style="vertical-align:top;">:</td><td><div>True</div></td></tr><tr><td style="font-weight:bold;vertical-align:top;">session_masterapp</td><td style="vertical-align:top;">:</td><td><div>init</div></td></tr><tr><td style="font-weight:bold;vertical-align:top;">session_new</td><td style="vertical-align:top;">:</td><td><div>False</div></td></tr><tr><td style="font-weight:bold;vertical-align:top;">session_storage_type</td><td style="vertical-align:top;">:</td><td><div>file</div></td></tr><tr><td style="font-weight:bold;vertical-align:top;">status</td><td style="vertical-align:top;">:</td><td><div>200</div></td></tr><tr><td style="font-weight:bold;vertical-align:top;">subtitle</td><td style="vertical-align:top;">:</td><td><div></div></td></tr><tr><td style="font-weight:bold;vertical-align:top;">title</td><td style="vertical-align:top;">:</td><td><div>Init</div></td></tr><tr><td style="font-weight:bold;vertical-align:top;">view</td><td style="vertical-align:top;">:</td><td><div>01_conglomerado/index.html</div></td></tr></table></div>'
tRp102
sS'locals'
p103
(dp104
S'fromlist'
p105
S'[]'
p106
sS'e'
S"KeyError('estructura_archivos_admin',)"
p107
sS'name'
p108
S"'estructura_archivos_admin'"
p109
sS'level'
p110
S'-1'
p111
sS'itemname'
p112
S"'estructura_archivos_admin'"
p113
sS'e3'
p114
S"ImportError('No module named estructura_archivos_admin',)"
p115
sS'base_importer'
p116
S'<built-in function __import__>'
p117
sS'globals'
p118
S"{'A': <class 'gluon.html.A'>, 'ANY_OF': <class 'gluon.validators.ANY_OF'>, 'ASSIGNJS': <function ASSIGNJS>, 'Auth': <class 'gluon.tools.Auth'>, 'B': <class 'gluon.html.B'>, 'BEAUTIFY': <class 'gluon.html.BEAUTIFY'>, 'BODY': <class 'gluon.html.BODY'>, 'BR': <class 'gluon.html.BR'>, 'BUTTON': <class 'gluon.html.BUTTON'>, 'CAT': <class 'gluon.html.CAT'>, ...}"
p119
sS'result'
p120
S'None'
p121
sS'items'
p122
S"['C:', 'Users', 'ArcGis', 'Documents', 'cliente_sarmod_windows_v4', 'cliente_sarmod_windows_v5', 'cliente_snmb', 'applications', 'init']"
p123
sS'modules_prefix'
p124
S"'applications.init.modules'"
p125
sS'new_mod'
p126
S"<module 'applications.init.modules' from 'applications\\init\\modules\\__init__.py'>"
p127
sS'e1'
p128
S'ImportError("Cannot import module \'estructura_archivos_admin\'",)'
p129
sS'import_tb'
p130
S'None'
p131
sg103
S"{'A': <class 'gluon.html.A'>, 'ANY_OF': <class 'gluon.validators.ANY_OF'>, 'ASSIGNJS': <function ASSIGNJS>, 'Auth': <class 'gluon.tools.Auth'>, 'B': <class 'gluon.html.B'>, 'BEAUTIFY': <class 'gluon.html.BEAUTIFY'>, 'BODY': <class 'gluon.html.BODY'>, 'BR': <class 'gluon.html.BR'>, 'BUTTON': <class 'gluon.html.BUTTON'>, 'CAT': <class 'gluon.html.CAT'>, ...}"
p132
sS'oname'
p133
S"'estructura_archivos_admin'"
p134
sssS'traceback'
p135
S'Traceback (most recent call last):\n  File "gluon/restricted.py", line 224, in restricted\n  File "C:\\Users\\ArcGis\\Documents\\cliente_sarmod_windows_v4\\cliente_sarmod_windows_v5\\cliente_snmb\\applications\\init\\controllers/01_conglomerado.py", line 3, in <module>\n    import estructura_archivos_admin as eaa\n  File "gluon/custom_import.py", line 86, in custom_importer\nImportError: Cannot import module \'estructura_archivos_admin\'\n'
p136
s.